target datalayout = "e-m:e-p270:32:32-p271:32:32-p272:64:64-i64:64-i128:128-f80:128-n8:16:32:64-S128"
target triple = "x86_64-pc-linux-gnu"

%struct._zval_struct = type { %union._zend_value, %union.anon, %union.anon.2 }
%union._zend_value = type { i64 }
%union.anon = type { i32 }
%union.anon.2 = type { i32 }
%struct._zend_array = type { %struct._zend_refcounted_h, %union.anon.5, i32, %union.anon.7, i32, i32, i32, i32, i64, ptr }
%struct._zend_refcounted_h = type { i32, %union.anon.3 }
%union.anon.3 = type { i32 }
%union.anon.5 = type { i32 }
%union.anon.7 = type { ptr }
%struct._zend_object = type { %struct._zend_refcounted_h, i32, ptr, ptr, ptr, [1 x %struct._zval_struct] }
%struct._zend_class_entry = type { i8, ptr, %union.anon.4, i32, i32, i32, i32, ptr, ptr, ptr, %struct._zend_array, %struct._zend_array, %struct._zend_array, ptr, ptr, ptr, ptr, ptr, ptr, ptr, ptr, ptr, ptr, ptr, ptr, ptr, ptr, ptr, ptr, ptr, ptr, ptr, %union.anon.8, ptr, ptr, ptr, ptr, i32, i32, %union.anon.9, ptr, ptr, ptr, ptr, i32, ptr, ptr, %union.anon.10 }
%union.anon.4 = type { ptr }
%union.anon.8 = type { ptr }
%union.anon.9 = type { ptr }
%union.anon.10 = type { %struct.anon.11 }
%struct.anon.11 = type { ptr, i32, i32 }
%struct._zend_class_iterator_funcs = type { ptr, ptr, ptr, ptr, ptr, ptr }
%struct._zend_user_iterator = type { %struct._zend_object_iterator, ptr, %struct._zval_struct }
%struct._zend_object_iterator = type { %struct._zend_object, %struct._zval_struct, ptr, i64 }

; Function Attrs: nounwind uwtable
define ptr @zend_user_it_get_current_data(ptr noundef %0) #0 {
  %2 = alloca ptr, align 8
  %3 = alloca ptr, align 8
  %4 = alloca ptr, align 8
  %5 = alloca i32, align 4
  %6 = alloca ptr, align 8
  %7 = alloca ptr, align 8
  %8 = alloca ptr, align 8
  %9 = alloca ptr, align 8
  %10 = alloca ptr, align 8
  %11 = alloca ptr, align 8
  %12 = alloca ptr, align 8
  %13 = alloca ptr, align 8
  store ptr %0, ptr %11, align 8
  %14 = load ptr, ptr %11, align 8
  store ptr %14, ptr %12, align 8
  %15 = load ptr, ptr %12, align 8
  %16 = getelementptr inbounds %struct._zend_user_iterator, ptr %15, i32 0, i32 0
  %17 = getelementptr inbounds %struct._zend_object_iterator, ptr %16, i32 0, i32 1
  store ptr %17, ptr %13, align 8
  %18 = load ptr, ptr %12, align 8
  %19 = getelementptr inbounds %struct._zend_user_iterator, ptr %18, i32 0, i32 2
  store ptr %19, ptr %7, align 8
  %20 = load ptr, ptr %7, align 8
  %21 = getelementptr inbounds %struct._zval_struct, ptr %20, i32 0, i32 1
  %22 = load i8, ptr %21, align 8
  %23 = zext i8 %22 to i32
  %24 = icmp eq i32 %23, 0
  br i1 %24, label %25, label %49

25:                                               ; preds = %1
  %26 = load ptr, ptr %12, align 8
  %27 = getelementptr inbounds %struct._zend_user_iterator, ptr %26, i32 0, i32 1
  %28 = load ptr, ptr %27, align 8
  %29 = getelementptr inbounds %struct._zend_class_entry, ptr %28, i32 0, i32 30
  %30 = load ptr, ptr %29, align 8
  %31 = getelementptr inbounds %struct._zend_class_iterator_funcs, ptr %30, i32 0, i32 2
  %32 = load ptr, ptr %31, align 8
  %33 = load ptr, ptr %13, align 8
  %34 = getelementptr inbounds %struct._zval_struct, ptr %33, i32 0, i32 0
  %35 = load ptr, ptr %34, align 8
  %36 = load ptr, ptr %12, align 8
  %37 = getelementptr inbounds %struct._zend_user_iterator, ptr %36, i32 0, i32 2
  store ptr %32, ptr %8, align 8
  store ptr %35, ptr %9, align 8
  store ptr %37, ptr %10, align 8
  %38 = load ptr, ptr %8, align 8
  %39 = load ptr, ptr %9, align 8
  %40 = load ptr, ptr %10, align 8
  store ptr %38, ptr %2, align 8
  store ptr %39, ptr %3, align 8
  store ptr %40, ptr %4, align 8
  store i32 0, ptr %5, align 4
  store ptr null, ptr %6, align 8
  %41 = load ptr, ptr %2, align 8
  %42 = load ptr, ptr %3, align 8
  %43 = load ptr, ptr %3, align 8
  %44 = getelementptr inbounds %struct._zend_object, ptr %43, i32 0, i32 2
  %45 = load ptr, ptr %44, align 8
  %46 = load ptr, ptr %4, align 8
  %47 = load i32, ptr %5, align 4
  %48 = load ptr, ptr %6, align 8
  call void @zend_call_known_function(ptr noundef %41, ptr noundef %42, ptr noundef %45, ptr noundef %46, i32 noundef %47, ptr noundef %48, ptr noundef null) #10
  br label %49

49:                                               ; preds = %25, %1
  %50 = load ptr, ptr %12, align 8
  %51 = getelementptr inbounds %struct._zend_user_iterator, ptr %50, i32 0, i32 2
  ret ptr %51
}