; Function Attrs: nounwind uwtable
define nonnull ptr @zend_user_it_get_current_data(ptr noundef %0) #0 {
  %2 = getelementptr inbounds i8, ptr %0, i64 96
  %3 = getelementptr inbounds i8, ptr %0, i64 104
  %4 = load i8, ptr %3, align 8
  %5 = icmp eq i8 %4, 0
  br i1 %5, label %6, label %17

6:                                                ; preds = %1
  %7 = getelementptr inbounds i8, ptr %0, i64 56
  %8 = getelementptr inbounds i8, ptr %0, i64 88
  %9 = load ptr, ptr %8, align 8
  %10 = getelementptr inbounds i8, ptr %9, i64 368
  %11 = load ptr, ptr %10, align 8
  %12 = getelementptr inbounds i8, ptr %11, i64 16
  %13 = load ptr, ptr %12, align 8
  %14 = load ptr, ptr %7, align 8
  %15 = getelementptr inbounds i8, ptr %14, i64 16
  %16 = load ptr, ptr %15, align 8
  tail call void @zend_call_known_function(ptr noundef %13, ptr noundef %14, ptr noundef %16, ptr noundef nonnull %2, i32 noundef 0, ptr noundef null, ptr noundef null) #9
  br label %17

17:                                               ; preds = %6, %1
  ret ptr %2
}